target datalayout = "e-m:e-p270:32:32-p271:32:32-p272:64:64-i64:64-i128:128-f80:128-n8:16:32:64-S128"
target triple = "x86_64-pc-linux-gnu"

%struct.lv_area_t = type { i32, i32, i32, i32 }
%struct._lv_obj_t = type { ptr, ptr, ptr, ptr, ptr, %struct.lv_area_t, i32, i16, i16 }

; Function Attrs: inlinehint nounwind uwtable
define internal void @lv_area_copy(ptr noundef %0, ptr noundef %1) #3 {
  %3 = alloca ptr, align 8
  %4 = alloca ptr, align 8
  store ptr %0, ptr %3, align 8, !tbaa !3
  store ptr %1, ptr %4, align 8, !tbaa !3
  %5 = load ptr, ptr %4, align 8, !tbaa !3
  %6 = getelementptr inbounds nuw %struct.lv_area_t, ptr %5, i32 0, i32 0
  %7 = load i32, ptr %6, align 4, !tbaa !33
  %8 = load ptr, ptr %3, align 8, !tbaa !3
  %9 = getelementptr inbounds nuw %struct.lv_area_t, ptr %8, i32 0, i32 0
  store i32 %7, ptr %9, align 4, !tbaa !33
  %10 = load ptr, ptr %4, align 8, !tbaa !3
  %11 = getelementptr inbounds nuw %struct.lv_area_t, ptr %10, i32 0, i32 1
  %12 = load i32, ptr %11, align 4, !tbaa !34
  %13 = load ptr, ptr %3, align 8, !tbaa !3
  %14 = getelementptr inbounds nuw %struct.lv_area_t, ptr %13, i32 0, i32 1
  store i32 %12, ptr %14, align 4, !tbaa !34
  %15 = load ptr, ptr %4, align 8, !tbaa !3
  %16 = getelementptr inbounds nuw %struct.lv_area_t, ptr %15, i32 0, i32 2
  %17 = load i32, ptr %16, align 4, !tbaa !35
  %18 = load ptr, ptr %3, align 8, !tbaa !3
  %19 = getelementptr inbounds nuw %struct.lv_area_t, ptr %18, i32 0, i32 2
  store i32 %17, ptr %19, align 4, !tbaa !35
  %20 = load ptr, ptr %4, align 8, !tbaa !3
  %21 = getelementptr inbounds nuw %struct.lv_area_t, ptr %20, i32 0, i32 3
  %22 = load i32, ptr %21, align 4, !tbaa !36
  %23 = load ptr, ptr %3, align 8, !tbaa !3
  %24 = getelementptr inbounds nuw %struct.lv_area_t, ptr %23, i32 0, i32 3
  store i32 %22, ptr %24, align 4, !tbaa !36
  ret void
}

; Function Attrs: nounwind uwtable
define void @lv_obj_get_coords(ptr noundef %0, ptr noundef %1) #0 {
  %3 = alloca ptr, align 8
  %4 = alloca ptr, align 8
  store ptr %0, ptr %3, align 8, !tbaa !3
  store ptr %1, ptr %4, align 8, !tbaa !3
  br label %5

5:                                                ; preds = %2
  br label %6

6:                                                ; preds = %5
  %7 = load ptr, ptr %4, align 8, !tbaa !3
  %8 = load ptr, ptr %3, align 8, !tbaa !3
  %9 = getelementptr inbounds nuw %struct._lv_obj_t, ptr %8, i32 0, i32 5
  call void @lv_area_copy(ptr noundef %7, ptr noundef %9)
  ret void
}