; Function Attrs: mustprogress nofree norecurse nosync nounwind willreturn memory(argmem: readwrite) uwtable
define void @lv_obj_get_coords(ptr nocapture noundef readonly %0, ptr nocapture noundef writeonly %1) local_unnamed_addr #5 {
  %3 = getelementptr inbounds nuw i8, ptr %0, i64 40
  %4 = load i32, ptr %3, align 4, !tbaa !31
  store i32 %4, ptr %1, align 4, !tbaa !31
  %5 = getelementptr inbounds nuw i8, ptr %0, i64 44
  %6 = load i32, ptr %5, align 4, !tbaa !32
  %7 = getelementptr inbounds nuw i8, ptr %1, i64 4
  store i32 %6, ptr %7, align 4, !tbaa !32
  %8 = getelementptr inbounds nuw i8, ptr %0, i64 48
  %9 = load i32, ptr %8, align 4, !tbaa !33
  %10 = getelementptr inbounds nuw i8, ptr %1, i64 8
  store i32 %9, ptr %10, align 4, !tbaa !33
  %11 = getelementptr inbounds nuw i8, ptr %0, i64 52
  %12 = load i32, ptr %11, align 4, !tbaa !34
  %13 = getelementptr inbounds nuw i8, ptr %1, i64 12
  store i32 %12, ptr %13, align 4, !tbaa !34
  ret void
}